; Function Attrs: nofree norecurse nosync nounwind memory(argmem: readwrite) uwtable
define hidden void @python_hashlib_Hacl_Hash_Blake2s_update_multi(i32 noundef %0, ptr noundef captures(none) %1, ptr noundef captures(none) %2, i64 noundef %3, ptr noundef readonly captures(none) %4, i32 noundef %5) local_unnamed_addr #3 {
  %.not = icmp eq i32 %5, 0
  br i1 %.not, label %._crit_edge, label %.lr.ph.preheader

.lr.ph.preheader:                                 ; preds = %6
  %wide.trip.count = zext i32 %5 to i64
  br label %.lr.ph

._crit_edge:                                      ; preds = %.lr.ph, %6
  ret void

.lr.ph:                                           ; preds = %.lr.ph.preheader, %.lr.ph
  %indvars.iv = phi i64 [ 0, %.lr.ph.preheader ], [ %indvars.iv.next, %.lr.ph ]
  %indvars.iv.next = add nuw nsw i64 %indvars.iv, 1
  %7 = shl i64 %indvars.iv.next, 6
  %8 = and i64 %7, 4294967232
  %9 = add i64 %3, %8
  %10 = shl i64 %indvars.iv, 6
  %11 = and i64 %10, 4294967232
  %12 = getelementptr i8, ptr %4, i64 %11
  tail call fastcc void @update_block(ptr noundef %1, ptr noundef %2, i1 noundef zeroext false, i1 noundef zeroext false, i64 noundef %9, ptr noundef %12)
  %exitcond.not = icmp eq i64 %indvars.iv.next, %wide.trip.count
  br i1 %exitcond.not, label %._crit_edge, label %.lr.ph, !llvm.loop !7
}